Certificate:
    Data:
        Version: 3 (0x2)
        Serial Number: 1 (0x1)
    Signature Algorithm: sha1WithRSAEncryption
        Issuer: CN=eur, C=FR, ST=PACA, L=Aix, O=Eurecom, OU=CM
        Validity
            Not Before: Jan  7 20:30:28 2015 GMT
            Not After : Jan  7 20:30:28 2016 GMT
        Subject: C=FR, ST=PACA, O=Eurecom, OU=CM, CN=hss.eur
        Subject Public Key Info:
            Public Key Algorithm: rsaEncryption
                Public-Key: (1024 bit)
                Modulus:
                    00:d8:c6:1c:f1:76:a5:c0:12:25:04:1e:b5:d1:ba:
                    61:65:b3:a7:2f:cd:61:cf:76:d7:dd:46:d8:52:bb:
                    9e:29:68:28:3a:d7:43:b4:ed:f5:c8:34:b7:36:32:
                    d7:fd:b1:ac:04:c2:69:30:34:89:c7:40:8e:a5:fd:
                    64:29:4c:25:df:67:7f:3a:55:e5:8c:54:e3:d3:bf:
                    fb:96:54:2b:47:3e:2c:42:d8:28:28:5f:9b:6d:09:
                    2c:83:ce:f1:7b:63:be:dd:22:4a:30:4a:4a:a7:9a:
                    d0:22:a6:cb:90:ae:18:e1:9a:31:8f:64:b9:56:44:
                    fe:da:04:ea:e8:1a:52:86:6b
                Exponent: 65537 (0x10001)
        X509v3 extensions:
            X509v3 Basic Constraints: 
                CA:FALSE
            Netscape Comment: 
                OpenSSL Generated Certificate
            X509v3 Subject Key Identifier: 
                1E:7A:5E:33:E0:30:1E:46:D1:E6:19:E0:96:0E:81:1F:93:6A:5F:D0
            X509v3 Authority Key Identifier: 
                keyid:55:4C:C0:E2:D9:F7:03:2A:D1:3A:9E:81:6B:B0:79:E4:20:A2:AB:53

    Signature Algorithm: sha1WithRSAEncryption
         4d:89:4c:d1:de:bf:b4:ef:04:41:db:f5:ef:e5:d9:2b:07:a1:
         e9:5f:d1:28:2e:fb:e8:e8:ac:43:99:d8:5b:ac:22:1e:24:8d:
         29:2c:f0:00:f7:9e:48:f1:1a:96:cf:8d:2b:6a:98:f4:b1:1f:
         9d:81:00:d7:d7:b1:89:85:a2:ff:3c:19:3f:c1:5f:52:9f:03:
         f8:41:cd:c3:9b:03:81:43:78:f8:6f:64:fe:31:2d:e1:bf:75:
         d2:7f:ce:f2:c5:1a:cc:07:6d:61:7c:58:80:ba:5c:c8:d3:31:
         3c:d6:82:ab:ed:95:cd:0e:83:43:40:02:bf:30:e9:35:e6:69:
         01:65
-----BEGIN CERTIFICATE-----
MIIClTCCAf6gAwIBAgIBATANBgkqhkiG9w0BAQUFADBXMQwwCgYDVQQDDANldXIx
CzAJBgNVBAYTAkZSMQ0wCwYDVQQIDARQQUNBMQwwCgYDVQQHDANBaXgxEDAOBgNV
BAoMB0V1cmVjb20xCzAJBgNVBAsMAkNNMB4XDTE1MDEwNzIwMzAyOFoXDTE2MDEw
NzIwMzAyOFowTTELMAkGA1UEBhMCRlIxDTALBgNVBAgMBFBBQ0ExEDAOBgNVBAoM
B0V1cmVjb20xCzAJBgNVBAsMAkNNMRAwDgYDVQQDDAdoc3MuZXVyMIGfMA0GCSqG
SIb3DQEBAQUAA4GNADCBiQKBgQDYxhzxdqXAEiUEHrXRumFls6cvzWHPdtfdRthS
u54paCg610O07fXINLc2Mtf9sawEwmkwNInHQI6l/WQpTCXfZ386VeWMVOPTv/uW
VCtHPixC2CgoX5ttCSyDzvF7Y77dIkowSkqnmtAipsuQrhjhmjGPZLlWRP7aBOro
GlKGawIDAQABo3sweTAJBgNVHRMEAjAAMCwGCWCGSAGG+EIBDQQfFh1PcGVuU1NM
IEdlbmVyYXRlZCBDZXJ0aWZpY2F0ZTAdBgNVHQ4EFgQUHnpeM+AwHkbR5hnglg6B
H5NqX9AwHwYDVR0jBBgwFoAUVUzA4tn3AyrROp6Ba7B55CCiq1MwDQYJKoZIhvcN
AQEFBQADgYEATYlM0d6/tO8EQdv17+XZKweh6V/RKC776OisQ5nYW6wiHiSNKSzw
APeeSPEals+NK2qY9LEfnYEA19exiYWi/zwZP8FfUp8D+EHNw5sDgUN4+G9k/jEt
4b910n/O8sUazAdtYXxYgLpcyNMxPNaCq+2VzQ6DQ0ACvzDpNeZpAWU=
-----END CERTIFICATE-----
