Certificate:
    Data:
        Version: 3 (0x2)
        Serial Number: 1 (0x1)
    Signature Algorithm: sha1WithRSAEncryption
        Issuer: CN=pft, C=FR, ST=PACA, L=Aix, O=Eurecom, OU=CM
        Validity
            Not Before: Jul  4 21:28:41 2015 GMT
            Not After : Jul  3 21:28:41 2016 GMT
        Subject: C=FR, ST=PACA, O=Eurecom, OU=CM, CN=phanik-VirtualBox.pft
        Subject Public Key Info:
            Public Key Algorithm: rsaEncryption
                Public-Key: (1024 bit)
                Modulus:
                    00:b1:4a:97:8d:a4:3b:24:58:f4:83:a0:b6:f0:94:
                    a5:b3:2a:24:34:96:8a:6d:79:41:fa:01:ec:2e:e8:
                    cd:29:af:19:bf:bd:fe:0b:fb:b0:42:fb:b9:9c:0a:
                    99:75:83:cc:68:7f:0a:20:99:ce:94:29:2d:e3:3e:
                    fd:7b:43:23:a7:ec:19:12:73:1c:f2:7e:74:43:b9:
                    2d:42:58:37:c3:48:1d:17:25:9d:f1:c5:a0:2a:cb:
                    23:36:fc:1e:18:31:95:e9:e1:cb:70:ec:59:99:90:
                    28:a7:d3:13:f4:45:b7:b6:5b:2e:ef:4b:fe:a9:0f:
                    64:4b:1a:94:37:5d:71:d8:63
                Exponent: 65537 (0x10001)
        X509v3 extensions:
            X509v3 Basic Constraints: 
                CA:FALSE
            Netscape Comment: 
                OpenSSL Generated Certificate
            X509v3 Subject Key Identifier: 
                F8:76:86:36:7B:5F:AB:26:31:8B:C9:CA:58:6F:7E:38:3F:A0:7E:85
            X509v3 Authority Key Identifier: 
                keyid:90:4F:DE:AE:12:F0:C9:40:D2:05:7D:49:26:4C:FF:AF:B9:D8:91:8F

    Signature Algorithm: sha1WithRSAEncryption
         45:2e:e9:37:f5:65:ca:d4:f1:f3:7c:c2:cb:26:b3:30:04:94:
         a5:8c:3a:74:e6:f3:0c:fd:63:73:5a:a0:bb:d6:89:8e:94:f5:
         2c:f3:b4:ac:2b:fb:06:1a:17:30:8a:c3:97:d3:9b:9e:08:9c:
         f8:ee:7e:67:04:ad:89:78:68:3f:7b:9a:50:63:6c:78:de:37:
         19:a6:52:c8:82:57:fb:be:62:03:7e:40:39:fc:5e:57:79:2b:
         b2:77:69:e9:f1:96:27:6a:87:33:b4:2b:c8:fb:a7:8c:14:85:
         ed:6f:e2:f0:53:ec:fc:c8:ca:3d:4f:89:f8:53:79:f0:69:7e:
         7c:e6
-----BEGIN CERTIFICATE-----
MIICozCCAgygAwIBAgIBATANBgkqhkiG9w0BAQUFADBXMQwwCgYDVQQDDANwZnQx
CzAJBgNVBAYTAkZSMQ0wCwYDVQQIDARQQUNBMQwwCgYDVQQHDANBaXgxEDAOBgNV
BAoMB0V1cmVjb20xCzAJBgNVBAsMAkNNMB4XDTE1MDcwNDIxMjg0MVoXDTE2MDcw
MzIxMjg0MVowWzELMAkGA1UEBhMCRlIxDTALBgNVBAgMBFBBQ0ExEDAOBgNVBAoM
B0V1cmVjb20xCzAJBgNVBAsMAkNNMR4wHAYDVQQDDBVwaGFuaWstVmlydHVhbEJv
eC5wZnQwgZ8wDQYJKoZIhvcNAQEBBQADgY0AMIGJAoGBALFKl42kOyRY9IOgtvCU
pbMqJDSWim15QfoB7C7ozSmvGb+9/gv7sEL7uZwKmXWDzGh/CiCZzpQpLeM+/XtD
I6fsGRJzHPJ+dEO5LUJYN8NIHRclnfHFoCrLIzb8Hhgxlenhy3DsWZmQKKfTE/RF
t7ZbLu9L/qkPZEsalDddcdhjAgMBAAGjezB5MAkGA1UdEwQCMAAwLAYJYIZIAYb4
QgENBB8WHU9wZW5TU0wgR2VuZXJhdGVkIENlcnRpZmljYXRlMB0GA1UdDgQWBBT4
doY2e1+rJjGLycpYb344P6B+hTAfBgNVHSMEGDAWgBSQT96uEvDJQNIFfUkmTP+v
udiRjzANBgkqhkiG9w0BAQUFAAOBgQBFLuk39WXK1PHzfMLLJrMwBJSljDp05vMM
/WNzWqC71omOlPUs87SsK/sGGhcwisOX05ueCJz47n5nBK2JeGg/e5pQY2x43jcZ
plLIglf7vmIDfkA5/F5XeSuyd2np8ZYnaocztCvI+6eMFIXtb+LwU+z8yMo9T4n4
U3nwaX585g==
-----END CERTIFICATE-----
